; Function Attrs: mustprogress ssp uwtable
define void @_ZN6open3d1t8geometry8vtkutils27ExtrudeRotationTriangleMeshERKNS1_8GeometryEdRKNS_4core6TensorEidb(ptr dead_on_unwind noalias writable sret(%"class.open3d::t::geometry::TriangleMesh") align 8 %0, ptr noundef nonnull align 8 dereferenceable(48) %1, double noundef %2, ptr noundef nonnull align 8 dereferenceable(160) %3, i32 noundef %4, double noundef %5, i1 noundef zeroext %6) local_unnamed_addr #6 personality ptr @__gxx_personality_v0 {
  %8 = alloca %class.vtkSmartPointer.348, align 8
  call void @llvm.lifetime.start.p0(i64 8, ptr nonnull %8) #38
  call fastcc void @_ZN6open3d1t8geometry8vtkutilsL23ExtrudeRotationPolyDataERKNS1_8GeometryEdRKNS_4core6TensorEidb(ptr dead_on_unwind noalias writable align 8 %8, ptr noundef nonnull align 8 dereferenceable(48) %1, double noundef %2, ptr noundef nonnull align 8 dereferenceable(160) %3, i32 noundef %4, double noundef %5, i1 noundef zeroext %6)
  %9 = load ptr, ptr %8, align 8, !tbaa !657
  invoke void @_ZN6open3d1t8geometry8vtkutils33CreateTriangleMeshFromVtkPolyDataEP11vtkPolyDatab(ptr dead_on_unwind writable sret(%"class.open3d::t::geometry::TriangleMesh") align 8 %0, ptr noundef %9, i1 noundef zeroext false)
          to label %10 unwind label %11

10:                                               ; preds = %7
  call void @_ZN19vtkSmartPointerBaseD2Ev(ptr noundef nonnull align 8 dereferenceable(8) %8) #38
  call void @llvm.lifetime.end.p0(i64 8, ptr nonnull %8) #38
  ret void

11:                                               ; preds = %7
  %12 = landingpad { ptr, i32 }
          cleanup
  call void @_ZN19vtkSmartPointerBaseD2Ev(ptr noundef nonnull align 8 dereferenceable(8) %8) #38
  call void @llvm.lifetime.end.p0(i64 8, ptr nonnull %8) #38
  resume { ptr, i32 } %12
}